target datalayout = "e-m:e-p270:32:32-p271:32:32-p272:64:64-i64:64-i128:128-f80:128-n8:16:32:64-S128"
target triple = "x86_64-pc-linux-gnu"

%struct._lv_obj_t = type { ptr, ptr, ptr, ptr, ptr, %struct.lv_area_t, i32, i16, i16 }
%struct.lv_area_t = type { i32, i32, i32, i32 }
%struct._lv_obj_spec_attr_t = type { ptr, ptr, %struct.lv_event_list_t, %struct.lv_point_t, i32, i32, i16, i16 }
%struct.lv_event_list_t = type { %struct._lv_array_t, i8 }
%struct._lv_array_t = type { ptr, i32, i32, i32, i8 }
%struct.lv_point_t = type { i32, i32 }

; Function Attrs: nounwind uwtable
define i32 @lv_obj_scroll_by_raw(ptr noundef %0, i32 noundef %1, i32 noundef %2) #0 {
  %4 = alloca i32, align 4
  %5 = alloca ptr, align 8
  %6 = alloca i32, align 4
  %7 = alloca i32, align 4
  %8 = alloca i32, align 4
  %9 = alloca i32, align 4
  store ptr %0, ptr %5, align 8, !tbaa !3
  store i32 %1, ptr %6, align 4, !tbaa !7
  store i32 %2, ptr %7, align 4, !tbaa !7
  %10 = load i32, ptr %6, align 4, !tbaa !7
  %11 = icmp eq i32 %10, 0
  br i1 %11, label %12, label %16

12:                                               ; preds = %3
  %13 = load i32, ptr %7, align 4, !tbaa !7
  %14 = icmp eq i32 %13, 0
  br i1 %14, label %15, label %16

15:                                               ; preds = %12
  store i32 1, ptr %4, align 4
  br label %46

16:                                               ; preds = %12, %3
  %17 = load ptr, ptr %5, align 8, !tbaa !3
  call void @lv_obj_allocate_spec_attr(ptr noundef %17)
  %18 = load i32, ptr %6, align 4, !tbaa !7
  %19 = load ptr, ptr %5, align 8, !tbaa !3
  %20 = getelementptr inbounds nuw %struct._lv_obj_t, ptr %19, i32 0, i32 2
  %21 = load ptr, ptr %20, align 8, !tbaa !9
  %22 = getelementptr inbounds nuw %struct._lv_obj_spec_attr_t, ptr %21, i32 0, i32 3
  %23 = getelementptr inbounds nuw %struct.lv_point_t, ptr %22, i32 0, i32 0
  %24 = load i32, ptr %23, align 8, !tbaa !13
  %25 = add nsw i32 %24, %18
  store i32 %25, ptr %23, align 8, !tbaa !13
  %26 = load i32, ptr %7, align 4, !tbaa !7
  %27 = load ptr, ptr %5, align 8, !tbaa !3
  %28 = getelementptr inbounds nuw %struct._lv_obj_t, ptr %27, i32 0, i32 2
  %29 = load ptr, ptr %28, align 8, !tbaa !9
  %30 = getelementptr inbounds nuw %struct._lv_obj_spec_attr_t, ptr %29, i32 0, i32 3
  %31 = getelementptr inbounds nuw %struct.lv_point_t, ptr %30, i32 0, i32 1
  %32 = load i32, ptr %31, align 4, !tbaa !19
  %33 = add nsw i32 %32, %26
  store i32 %33, ptr %31, align 4, !tbaa !19
  %34 = load ptr, ptr %5, align 8, !tbaa !3
  %35 = load i32, ptr %6, align 4, !tbaa !7
  %36 = load i32, ptr %7, align 4, !tbaa !7
  call void @lv_obj_move_children_by(ptr noundef %34, i32 noundef %35, i32 noundef %36, i1 noundef zeroext true)
  call void @llvm.lifetime.start.p0(i64 4, ptr %8) #5
  %37 = load ptr, ptr %5, align 8, !tbaa !3
  %38 = call i32 @lv_obj_send_event(ptr noundef %37, i32 noundef 15, ptr noundef null)
  store i32 %38, ptr %8, align 4, !tbaa !7
  %39 = load i32, ptr %8, align 4, !tbaa !7
  %40 = icmp ne i32 %39, 1
  br i1 %40, label %41, label %43

41:                                               ; preds = %16
  %42 = load i32, ptr %8, align 4, !tbaa !7
  store i32 %42, ptr %4, align 4
  store i32 1, ptr %9, align 4
  br label %45

43:                                               ; preds = %16
  %44 = load ptr, ptr %5, align 8, !tbaa !3
  call void @lv_obj_invalidate(ptr noundef %44)
  store i32 1, ptr %4, align 4
  store i32 1, ptr %9, align 4
  br label %45

45:                                               ; preds = %43, %41
  call void @llvm.lifetime.end.p0(i64 4, ptr %8) #5
  br label %46

46:                                               ; preds = %45, %15
  %47 = load i32, ptr %4, align 4
  ret i32 %47
}