; Function Attrs: nounwind uwtable
define i32 @lv_obj_scroll_by_raw(ptr noundef %0, i32 noundef %1, i32 noundef %2) local_unnamed_addr #0 {
  %4 = or i32 %2, %1
  %or.cond = icmp eq i32 %4, 0
  br i1 %or.cond, label %16, label %5

5:                                                ; preds = %3
  tail call void @lv_obj_allocate_spec_attr(ptr noundef %0) #5
  %6 = getelementptr inbounds nuw i8, ptr %0, i64 16
  %7 = load ptr, ptr %6, align 8, !tbaa !3
  %8 = getelementptr inbounds nuw i8, ptr %7, i64 48
  %9 = load i32, ptr %8, align 8, !tbaa !11
  %10 = add nsw i32 %9, %1
  store i32 %10, ptr %8, align 8, !tbaa !11
  %11 = getelementptr inbounds nuw i8, ptr %7, i64 52
  %12 = load i32, ptr %11, align 4, !tbaa !17
  %13 = add nsw i32 %12, %2
  store i32 %13, ptr %11, align 4, !tbaa !17
  tail call void @lv_obj_move_children_by(ptr noundef %0, i32 noundef %1, i32 noundef %2, i1 noundef zeroext true) #5
  %14 = tail call i32 @lv_obj_send_event(ptr noundef %0, i32 noundef 15, ptr noundef null) #5
  %.not = icmp eq i32 %14, 1
  br i1 %.not, label %15, label %16

15:                                               ; preds = %5
  tail call void @lv_obj_invalidate(ptr noundef nonnull %0) #5
  br label %16

16:                                               ; preds = %15, %5, %3
  %.0 = phi i32 [ 1, %3 ], [ 1, %15 ], [ %14, %5 ]
  ret i32 %.0
}